target datalayout = "e-m:e-p270:32:32-p271:32:32-p272:64:64-i64:64-i128:128-f80:128-n8:16:32:64-S128"
target triple = "x86_64-pc-linux-gnu"

%struct.PyVarObject = type { %struct._object, i64 }
%struct._object = type { %union.anon, ptr }
%union.anon = type { i64 }
%struct._ts = type { ptr, ptr, ptr, i64, %struct.anon.805, i32, i32, i32, i32, i32, i32, i32, i32, ptr, ptr, ptr, ptr, ptr, ptr, ptr, ptr, i32, ptr, i64, i64, ptr, i64, i32, ptr, ptr, ptr, i64, i64, ptr, ptr, ptr, %struct._err_stackitem, ptr, i64, ptr, ptr }
%struct.anon.805 = type { i32 }
%struct._err_stackitem = type { ptr, ptr }
%struct.PyDescrObject = type { %struct._object, ptr, ptr, ptr }
%struct.PyMethodDescrObject = type { %struct.PyDescrObject, ptr, ptr }
%struct.PyMethodDef = type { ptr, ptr, i32, ptr }
%struct.anon = type { i32, i32 }

@_Py_tss_tstate = external thread_local global ptr, align 8
@.str.42 = private unnamed_addr constant [31 x i8] c" while calling a Python object\00", align 1

; Function Attrs: inlinehint nounwind uwtable
define internal i32 @_Py_MakeRecCheck(ptr noundef %0) #3 {
  %2 = alloca ptr, align 8
  store ptr %0, ptr %2, align 8, !tbaa !50
  %3 = load ptr, ptr %2, align 8, !tbaa !50
  %4 = getelementptr inbounds nuw %struct._ts, ptr %3, i32 0, i32 9
  %5 = load i32, ptr %4, align 4, !tbaa !146
  %6 = add i32 %5, -1
  store i32 %6, ptr %4, align 4, !tbaa !146
  %7 = icmp slt i32 %5, 0
  %8 = zext i1 %7 to i32
  ret i32 %8
}

; Function Attrs: alwaysinline nounwind uwtable
define internal i32 @_Py_IsImmortal(ptr noundef %0) #4 {
  %2 = alloca ptr, align 8
  store ptr %0, ptr %2, align 8, !tbaa !4
  %3 = load ptr, ptr %2, align 8, !tbaa !4
  %4 = getelementptr inbounds nuw %struct._object, ptr %3, i32 0, i32 0
  %5 = getelementptr inbounds nuw %struct.anon, ptr %4, i32 0, i32 0
  %6 = load i32, ptr %5, align 8, !tbaa !159
  %7 = icmp slt i32 %6, 0
  %8 = zext i1 %7 to i32
  ret i32 %8
}

; Function Attrs: inlinehint nounwind uwtable
define internal i32 @_Py_EnterRecursiveCallTstate(ptr noundef %0, ptr noundef %1) #3 {
  %3 = alloca ptr, align 8
  %4 = alloca ptr, align 8
  store ptr %0, ptr %3, align 8, !tbaa !50
  store ptr %1, ptr %4, align 8, !tbaa !52
  %5 = load ptr, ptr %3, align 8, !tbaa !50
  %6 = call i32 @_Py_MakeRecCheck(ptr noundef %5)
  %7 = icmp ne i32 %6, 0
  br i1 %7, label %8, label %13

8:                                                ; preds = %2
  %9 = load ptr, ptr %3, align 8, !tbaa !50
  %10 = load ptr, ptr %4, align 8, !tbaa !52
  %11 = call i32 @_Py_CheckRecursiveCall(ptr noundef %9, ptr noundef %10)
  %12 = icmp ne i32 %11, 0
  br label %13

13:                                               ; preds = %8, %2
  %14 = phi i1 [ false, %2 ], [ %12, %8 ]
  %15 = zext i1 %14 to i32
  ret i32 %15
}

; Function Attrs: inlinehint nounwind uwtable
define internal i64 @Py_SIZE(ptr noundef %0) #3 {
  %2 = alloca ptr, align 8
  store ptr %0, ptr %2, align 8, !tbaa !4
  %3 = load ptr, ptr %2, align 8, !tbaa !4
  %4 = getelementptr inbounds nuw %struct.PyVarObject, ptr %3, i32 0, i32 1
  %5 = load i64, ptr %4, align 8, !tbaa !162
  ret i64 %5
}

; Function Attrs: inlinehint nounwind uwtable
define internal void @Py_XDECREF(ptr noundef %0) #3 {
  %2 = alloca ptr, align 8
  store ptr %0, ptr %2, align 8, !tbaa !4
  %3 = load ptr, ptr %2, align 8, !tbaa !4
  %4 = icmp ne ptr %3, null
  br i1 %4, label %5, label %7

5:                                                ; preds = %1
  %6 = load ptr, ptr %2, align 8, !tbaa !4
  call void @Py_DECREF(ptr noundef %6)
  br label %7

7:                                                ; preds = %5, %1
  ret void
}

; Function Attrs: alwaysinline nounwind uwtable
define internal void @Py_DECREF(ptr noundef %0) #4 {
  %2 = alloca ptr, align 8
  store ptr %0, ptr %2, align 8, !tbaa !4
  %3 = load ptr, ptr %2, align 8, !tbaa !4
  %4 = call i32 @_Py_IsImmortal(ptr noundef %3)
  %5 = icmp ne i32 %4, 0
  br i1 %5, label %6, label %7

6:                                                ; preds = %1
  br label %16

7:                                                ; preds = %1
  %8 = load ptr, ptr %2, align 8, !tbaa !4
  %9 = getelementptr inbounds nuw %struct._object, ptr %8, i32 0, i32 0
  %10 = getelementptr inbounds nuw %struct.anon, ptr %9, i32 0, i32 0
  %11 = load i32, ptr %10, align 8, !tbaa !159
  %12 = add i32 %11, -1
  store i32 %12, ptr %10, align 8, !tbaa !159
  %13 = icmp eq i32 %12, 0
  br i1 %13, label %14, label %16

14:                                               ; preds = %7
  %15 = load ptr, ptr %2, align 8, !tbaa !4
  call void @_Py_Dealloc(ptr noundef %15)
  br label %16

16:                                               ; preds = %6, %14, %7
  ret void
}

; Function Attrs: inlinehint nounwind uwtable
define internal void @_Py_LeaveRecursiveCallTstate(ptr noundef %0) #3 {
  %2 = alloca ptr, align 8
  store ptr %0, ptr %2, align 8, !tbaa !50
  %3 = load ptr, ptr %2, align 8, !tbaa !50
  %4 = getelementptr inbounds nuw %struct._ts, ptr %3, i32 0, i32 9
  %5 = load i32, ptr %4, align 4, !tbaa !146
  %6 = add i32 %5, 1
  store i32 %6, ptr %4, align 4, !tbaa !146
  ret void
}

; Function Attrs: inlinehint nounwind uwtable
define internal ptr @method_enter_call(ptr noundef %0, ptr noundef %1) #3 {
  %3 = alloca ptr, align 8
  %4 = alloca ptr, align 8
  %5 = alloca ptr, align 8
  store ptr %0, ptr %4, align 8, !tbaa !50
  store ptr %1, ptr %5, align 8, !tbaa !4
  %6 = load ptr, ptr %4, align 8, !tbaa !50
  %7 = call i32 @_Py_EnterRecursiveCallTstate(ptr noundef %6, ptr noundef @.str.42)
  %8 = icmp ne i32 %7, 0
  br i1 %8, label %9, label %10

9:                                                ; preds = %2
  store ptr null, ptr %3, align 8
  br label %16

10:                                               ; preds = %2
  %11 = load ptr, ptr %5, align 8, !tbaa !4
  %12 = getelementptr inbounds nuw %struct.PyMethodDescrObject, ptr %11, i32 0, i32 1
  %13 = load ptr, ptr %12, align 8, !tbaa !18
  %14 = getelementptr inbounds nuw %struct.PyMethodDef, ptr %13, i32 0, i32 1
  %15 = load ptr, ptr %14, align 8, !tbaa !172
  store ptr %15, ptr %3, align 8
  br label %16

16:                                               ; preds = %10, %9
  %17 = load ptr, ptr %3, align 8
  ret ptr %17
}

; Function Attrs: inlinehint nounwind uwtable
define internal i64 @PyTuple_GET_SIZE(ptr noundef %0) #3 {
  %2 = alloca ptr, align 8
  %3 = alloca ptr, align 8
  store ptr %0, ptr %2, align 8, !tbaa !4
  call void @llvm.lifetime.start.p0(i64 8, ptr %3) #6
  %4 = load ptr, ptr %2, align 8, !tbaa !4
  store ptr %4, ptr %3, align 8, !tbaa !9
  %5 = load ptr, ptr %3, align 8, !tbaa !9
  %6 = call i64 @Py_SIZE(ptr noundef %5)
  call void @llvm.lifetime.end.p0(i64 8, ptr %3) #6
  ret i64 %6
}

; Function Attrs: inlinehint nounwind uwtable
define internal i64 @_PyVectorcall_NARGS(i64 noundef %0) #3 {
  %2 = alloca i64, align 8
  store i64 %0, ptr %2, align 8, !tbaa !32
  %3 = load i64, ptr %2, align 8, !tbaa !32
  %4 = and i64 %3, 9223372036854775807
  ret i64 %4
}

; Function Attrs: inlinehint nounwind uwtable
define internal ptr @_PyThreadState_GET() #3 {
  %1 = call align 8 ptr @llvm.threadlocal.address.p0(ptr align 8 @_Py_tss_tstate)
  %2 = load ptr, ptr %1, align 8, !tbaa !50
  ret ptr %2
}

; Function Attrs: nounwind uwtable
define internal ptr @method_vectorcall_VARARGS_KEYWORDS(ptr noundef %0, ptr noundef %1, i64 noundef %2, ptr noundef %3) #0 {
  %5 = alloca ptr, align 8
  %6 = alloca ptr, align 8
  %7 = alloca ptr, align 8
  %8 = alloca i64, align 8
  %9 = alloca ptr, align 8
  %10 = alloca ptr, align 8
  %11 = alloca i64, align 8
  %12 = alloca i32, align 4
  %13 = alloca ptr, align 8
  %14 = alloca ptr, align 8
  %15 = alloca ptr, align 8
  %16 = alloca ptr, align 8
  store ptr %0, ptr %6, align 8, !tbaa !4
  store ptr %1, ptr %7, align 8, !tbaa !48
  store i64 %2, ptr %8, align 8, !tbaa !32
  store ptr %3, ptr %9, align 8, !tbaa !4
  call void @llvm.lifetime.start.p0(i64 8, ptr %10) #6
  %17 = call ptr @_PyThreadState_GET()
  store ptr %17, ptr %10, align 8, !tbaa !50
  call void @llvm.lifetime.start.p0(i64 8, ptr %11) #6
  %18 = load i64, ptr %8, align 8, !tbaa !32
  %19 = call i64 @_PyVectorcall_NARGS(i64 noundef %18)
  store i64 %19, ptr %11, align 8, !tbaa !32
  %20 = load ptr, ptr %6, align 8, !tbaa !4
  %21 = load ptr, ptr %7, align 8, !tbaa !48
  %22 = load i64, ptr %11, align 8, !tbaa !32
  %23 = call i32 @method_check_args(ptr noundef %20, ptr noundef %21, i64 noundef %22, ptr noundef null)
  %24 = icmp ne i32 %23, 0
  br i1 %24, label %25, label %26

25:                                               ; preds = %4
  store ptr null, ptr %5, align 8
  store i32 1, ptr %12, align 4
  br label %73

26:                                               ; preds = %4
  call void @llvm.lifetime.start.p0(i64 8, ptr %13) #6
  %27 = load ptr, ptr %7, align 8, !tbaa !48
  %28 = getelementptr ptr, ptr %27, i64 1
  %29 = load i64, ptr %11, align 8, !tbaa !32
  %30 = sub i64 %29, 1
  %31 = call ptr @_PyTuple_FromArray(ptr noundef %28, i64 noundef %30)
  store ptr %31, ptr %13, align 8, !tbaa !4
  %32 = load ptr, ptr %13, align 8, !tbaa !4
  %33 = icmp eq ptr %32, null
  br i1 %33, label %34, label %35

34:                                               ; preds = %26
  store ptr null, ptr %5, align 8
  store i32 1, ptr %12, align 4
  br label %72

35:                                               ; preds = %26
  call void @llvm.lifetime.start.p0(i64 8, ptr %14) #6
  store ptr null, ptr %14, align 8, !tbaa !4
  call void @llvm.lifetime.start.p0(i64 8, ptr %15) #6
  store ptr null, ptr %15, align 8, !tbaa !4
  %36 = load ptr, ptr %9, align 8, !tbaa !4
  %37 = icmp ne ptr %36, null
  br i1 %37, label %38, label %52

38:                                               ; preds = %35
  %39 = load ptr, ptr %9, align 8, !tbaa !4
  %40 = call i64 @PyTuple_GET_SIZE(ptr noundef %39)
  %41 = icmp sgt i64 %40, 0
  br i1 %41, label %42, label %52

42:                                               ; preds = %38
  %43 = load ptr, ptr %7, align 8, !tbaa !48
  %44 = load i64, ptr %11, align 8, !tbaa !32
  %45 = getelementptr ptr, ptr %43, i64 %44
  %46 = load ptr, ptr %9, align 8, !tbaa !4
  %47 = call ptr @_PyStack_AsDict(ptr noundef %45, ptr noundef %46)
  store ptr %47, ptr %15, align 8, !tbaa !4
  %48 = load ptr, ptr %15, align 8, !tbaa !4
  %49 = icmp eq ptr %48, null
  br i1 %49, label %50, label %51

50:                                               ; preds = %42
  br label %68

51:                                               ; preds = %42
  br label %52

52:                                               ; preds = %51, %38, %35
  %53 = load ptr, ptr %10, align 8, !tbaa !50
  %54 = load ptr, ptr %6, align 8, !tbaa !4
  %55 = call ptr @method_enter_call(ptr noundef %53, ptr noundef %54)
  store ptr %55, ptr %16, align 8, !tbaa !9
  %56 = load ptr, ptr %16, align 8, !tbaa !9
  %57 = icmp eq ptr %56, null
  br i1 %57, label %58, label %59

58:                                               ; preds = %52
  br label %68

59:                                               ; preds = %52
  %60 = load ptr, ptr %16, align 8, !tbaa !9
  %61 = load ptr, ptr %7, align 8, !tbaa !48
  %62 = getelementptr ptr, ptr %61, i64 0
  %63 = load ptr, ptr %62, align 8, !tbaa !4
  %64 = load ptr, ptr %13, align 8, !tbaa !4
  %65 = load ptr, ptr %15, align 8, !tbaa !4
  %66 = call ptr %60(ptr noundef %63, ptr noundef %64, ptr noundef %65)
  store ptr %66, ptr %14, align 8, !tbaa !4
  %67 = load ptr, ptr %10, align 8, !tbaa !50
  call void @_Py_LeaveRecursiveCallTstate(ptr noundef %67)
  br label %68

68:                                               ; preds = %59, %58, %50
  %69 = load ptr, ptr %13, align 8, !tbaa !4
  call void @Py_DECREF(ptr noundef %69)
  %70 = load ptr, ptr %15, align 8, !tbaa !4
  call void @Py_XDECREF(ptr noundef %70)
  %71 = load ptr, ptr %14, align 8, !tbaa !4
  store ptr %71, ptr %5, align 8
  store i32 1, ptr %12, align 4
  call void @llvm.lifetime.end.p0(i64 8, ptr %15) #6
  call void @llvm.lifetime.end.p0(i64 8, ptr %14) #6
  br label %72

72:                                               ; preds = %68, %34
  call void @llvm.lifetime.end.p0(i64 8, ptr %13) #6
  br label %73

73:                                               ; preds = %72, %25
  call void @llvm.lifetime.end.p0(i64 8, ptr %11) #6
  call void @llvm.lifetime.end.p0(i64 8, ptr %10) #6
  %74 = load ptr, ptr %5, align 8
  ret ptr %74
}