; Function Attrs: nounwind uwtable
define internal ptr @method_vectorcall_VARARGS_KEYWORDS(ptr noundef %0, ptr noundef %1, i64 noundef %2, ptr noundef %3) #0 {
  %5 = tail call align 8 ptr @llvm.threadlocal.address.p0(ptr align 8 @_Py_tss_tstate)
  %6 = load ptr, ptr %5, align 8, !tbaa !63
  %7 = and i64 %2, 9223372036854775807
  %8 = tail call fastcc i32 @method_check_args(ptr noundef %0, ptr noundef %1, i64 noundef %7, ptr noundef null)
  %.not = icmp eq i32 %8, 0
  br i1 %.not, label %9, label %Py_XDECREF.exit

9:                                                ; preds = %4
  %10 = getelementptr i8, ptr %1, i64 8
  %11 = add nsw i64 %7, -1
  %12 = tail call ptr @_PyTuple_FromArray(ptr noundef %10, i64 noundef %11) #9
  %13 = icmp eq ptr %12, null
  br i1 %13, label %Py_XDECREF.exit, label %14

14:                                               ; preds = %9
  %.not32 = icmp eq ptr %3, null
  br i1 %.not32, label %22, label %15

15:                                               ; preds = %14
  %16 = getelementptr i8, ptr %3, i64 16
  %.val = load i64, ptr %16, align 8, !tbaa !36
  %17 = icmp sgt i64 %.val, 0
  br i1 %17, label %18, label %22

18:                                               ; preds = %15
  %19 = getelementptr ptr, ptr %1, i64 %7
  %20 = tail call ptr @_PyStack_AsDict(ptr noundef %19, ptr noundef nonnull %3) #9
  %21 = icmp eq ptr %20, null
  br i1 %21, label %method_enter_call.exit.thread, label %22

22:                                               ; preds = %18, %15, %14
  %.024 = phi ptr [ %20, %18 ], [ null, %15 ], [ null, %14 ]
  %23 = getelementptr inbounds nuw i8, ptr %6, i64 52
  %24 = load i32, ptr %23, align 4, !tbaa !144
  %25 = add i32 %24, -1
  store i32 %25, ptr %23, align 4, !tbaa !144
  %.not.i.i = icmp sgt i32 %24, -1
  br i1 %.not.i.i, label %method_enter_call.exit, label %_Py_EnterRecursiveCallTstate.exit.i

_Py_EnterRecursiveCallTstate.exit.i:              ; preds = %22
  %26 = tail call i32 @_Py_CheckRecursiveCall(ptr noundef nonnull %6, ptr noundef nonnull @.str.42) #9
  %.not4.i = icmp eq i32 %26, 0
  br i1 %.not4.i, label %method_enter_call.exit, label %method_enter_call.exit.thread

method_enter_call.exit:                           ; preds = %22, %_Py_EnterRecursiveCallTstate.exit.i
  %27 = getelementptr inbounds nuw i8, ptr %0, i64 40
  %28 = load ptr, ptr %27, align 8, !tbaa !31
  %29 = getelementptr inbounds nuw i8, ptr %28, i64 8
  %30 = load ptr, ptr %29, align 8, !tbaa !145
  %31 = icmp eq ptr %30, null
  br i1 %31, label %method_enter_call.exit.thread, label %32

32:                                               ; preds = %method_enter_call.exit
  %33 = load ptr, ptr %1, align 8, !tbaa !30
  %34 = tail call ptr %30(ptr noundef %33, ptr noundef nonnull %12, ptr noundef %.024) #9
  %35 = load i32, ptr %23, align 4, !tbaa !144
  %36 = add i32 %35, 1
  store i32 %36, ptr %23, align 4, !tbaa !144
  br label %method_enter_call.exit.thread

method_enter_call.exit.thread:                    ; preds = %_Py_EnterRecursiveCallTstate.exit.i, %method_enter_call.exit, %18, %32
  %.026 = phi ptr [ null, %18 ], [ null, %method_enter_call.exit ], [ %34, %32 ], [ null, %_Py_EnterRecursiveCallTstate.exit.i ]
  %.125 = phi ptr [ null, %18 ], [ %.024, %method_enter_call.exit ], [ %.024, %32 ], [ %.024, %_Py_EnterRecursiveCallTstate.exit.i ]
  %37 = load i32, ptr %12, align 8, !tbaa !16
  %.not.i = icmp sgt i32 %37, -1
  br i1 %.not.i, label %38, label %Py_DECREF.exit

38:                                               ; preds = %method_enter_call.exit.thread
  %39 = add nsw i32 %37, -1
  store i32 %39, ptr %12, align 8, !tbaa !16
  %40 = icmp eq i32 %39, 0
  br i1 %40, label %41, label %Py_DECREF.exit

41:                                               ; preds = %38
  tail call void @_Py_Dealloc(ptr noundef nonnull %12) #9
  br label %Py_DECREF.exit

Py_DECREF.exit:                                   ; preds = %method_enter_call.exit.thread, %38, %41
  %.not.i33 = icmp eq ptr %.125, null
  br i1 %.not.i33, label %Py_XDECREF.exit, label %42

42:                                               ; preds = %Py_DECREF.exit
  %43 = load i32, ptr %.125, align 8, !tbaa !16
  %.not.i.i34 = icmp sgt i32 %43, -1
  br i1 %.not.i.i34, label %44, label %Py_XDECREF.exit

44:                                               ; preds = %42
  %45 = add nsw i32 %43, -1
  store i32 %45, ptr %.125, align 8, !tbaa !16
  %46 = icmp eq i32 %45, 0
  br i1 %46, label %47, label %Py_XDECREF.exit

47:                                               ; preds = %44
  tail call void @_Py_Dealloc(ptr noundef nonnull %.125) #9
  br label %Py_XDECREF.exit

Py_XDECREF.exit:                                  ; preds = %47, %44, %42, %Py_DECREF.exit, %9, %4
  %.0 = phi ptr [ null, %4 ], [ null, %9 ], [ %.026, %Py_DECREF.exit ], [ %.026, %42 ], [ %.026, %44 ], [ %.026, %47 ]
  ret ptr %.0
}